; Function Attrs: nounwind uwtable
define internal void @imageio_term_destination(ptr noundef %0) #1 {
  %2 = getelementptr inbounds i8, ptr %0, i64 40
  %3 = load ptr, ptr %2, align 8
  %4 = getelementptr inbounds i8, ptr %0, i64 24
  %5 = load ptr, ptr %4, align 8
  %6 = getelementptr inbounds i8, ptr %5, i64 16
  %7 = load ptr, ptr @the_jvm, align 8
  %8 = tail call ptr @JNU_GetEnv(ptr noundef %7, i32 noundef 65538) #13
  %9 = getelementptr inbounds i8, ptr %5, i64 48
  %10 = load i64, ptr %9, align 8
  %11 = getelementptr inbounds i8, ptr %3, i64 8
  %12 = load i64, ptr %11, align 8
  %13 = sub i64 %10, %12
  %14 = trunc i64 %13 to i32
  %.not = icmp eq i32 %14, 0
  br i1 %.not, label %GET_ARRAYS.exit, label %15

15:                                               ; preds = %1
  %16 = getelementptr inbounds i8, ptr %5, i64 32
  %17 = load ptr, ptr %16, align 8
  %.not.i.i = icmp eq ptr %17, null
  br i1 %.not.i.i, label %unpinStreamBuffer.exit.i, label %18

18:                                               ; preds = %15
  %19 = load ptr, ptr %3, align 8
  %20 = icmp eq ptr %19, null
  %21 = ptrtoint ptr %19 to i64
  %22 = ptrtoint ptr %17 to i64
  %23 = sub i64 %21, %22
  %.sink.i.i = select i1 %20, i64 -1, i64 %23
  %24 = getelementptr inbounds i8, ptr %5, i64 40
  store i64 %.sink.i.i, ptr %24, align 8
  %25 = load ptr, ptr %8, align 8
  %26 = getelementptr inbounds i8, ptr %25, i64 1784
  %27 = load ptr, ptr %26, align 8
  %28 = getelementptr inbounds i8, ptr %5, i64 24
  %29 = load ptr, ptr %28, align 8
  tail call void %27(ptr noundef nonnull %8, ptr noundef %29, ptr noundef nonnull %17, i32 noundef 0) #13
  store ptr null, ptr %16, align 8
  br label %unpinStreamBuffer.exit.i

unpinStreamBuffer.exit.i:                         ; preds = %18, %15
  %30 = getelementptr inbounds i8, ptr %5, i64 88
  %31 = load ptr, ptr %30, align 8
  %.not.i5.i = icmp eq ptr %31, null
  br i1 %.not.i5.i, label %RELEASE_ARRAYS.exit, label %32

32:                                               ; preds = %unpinStreamBuffer.exit.i
  %33 = getelementptr inbounds i8, ptr %5, i64 72
  %34 = load ptr, ptr %8, align 8
  %35 = getelementptr inbounds i8, ptr %34, i64 1784
  %36 = load ptr, ptr %35, align 8
  %37 = load ptr, ptr %33, align 8
  tail call void %36(ptr noundef nonnull %8, ptr noundef %37, ptr noundef nonnull %31, i32 noundef 0) #13
  store ptr null, ptr %30, align 8
  br label %RELEASE_ARRAYS.exit

RELEASE_ARRAYS.exit:                              ; preds = %unpinStreamBuffer.exit.i, %32
  %38 = load ptr, ptr %8, align 8
  %39 = getelementptr inbounds i8, ptr %38, i64 192
  %40 = load ptr, ptr %39, align 8
  %41 = load ptr, ptr %6, align 8
  %42 = tail call zeroext i8 %40(ptr noundef nonnull %8, ptr noundef %41, ptr noundef null) #13
  %.not33 = icmp eq i8 %42, 0
  br i1 %.not33, label %43, label %50

43:                                               ; preds = %RELEASE_ARRAYS.exit
  %44 = load ptr, ptr %8, align 8
  %45 = getelementptr inbounds i8, ptr %44, i64 200
  %46 = load ptr, ptr %45, align 8
  %47 = load ptr, ptr %6, align 8
  %48 = tail call ptr %46(ptr noundef nonnull %8, ptr noundef %47) #13
  %49 = icmp eq ptr %48, null
  br i1 %49, label %50, label %53

50:                                               ; preds = %43, %RELEASE_ARRAYS.exit
  %51 = load ptr, ptr %0, align 8
  %52 = load ptr, ptr %51, align 8
  tail call void %52(ptr noundef nonnull %0) #13
  br label %53

53:                                               ; preds = %43, %50
  %.1 = phi ptr [ null, %50 ], [ %48, %43 ]
  %54 = load ptr, ptr %8, align 8
  %55 = getelementptr inbounds i8, ptr %54, i64 488
  %56 = load ptr, ptr %55, align 8
  %57 = load ptr, ptr @JPEGImageWriter_writeOutputDataID, align 8
  %58 = getelementptr inbounds i8, ptr %5, i64 24
  %59 = load ptr, ptr %58, align 8
  tail call void (ptr, ptr, ptr, ...) %56(ptr noundef nonnull %8, ptr noundef %.1, ptr noundef %57, ptr noundef %59, i32 noundef 0, i32 noundef %14) #13
  %60 = load ptr, ptr %8, align 8
  %61 = getelementptr inbounds i8, ptr %60, i64 120
  %62 = load ptr, ptr %61, align 8
  %63 = tail call ptr %62(ptr noundef nonnull %8) #13
  %.not34 = icmp eq ptr %63, null
  br i1 %.not34, label %64, label %GET_ARRAYS.exit.thread

64:                                               ; preds = %53
  %65 = load ptr, ptr %58, align 8
  %.not.i.i36 = icmp eq ptr %65, null
  br i1 %.not.i.i36, label %77, label %66

66:                                               ; preds = %64
  %67 = load ptr, ptr %8, align 8
  %68 = getelementptr inbounds i8, ptr %67, i64 1776
  %69 = load ptr, ptr %68, align 8
  %70 = tail call ptr %69(ptr noundef nonnull %8, ptr noundef nonnull %65, ptr noundef null) #13
  store ptr %70, ptr %16, align 8
  %71 = icmp eq ptr %70, null
  br i1 %71, label %GET_ARRAYS.exit.thread, label %72

72:                                               ; preds = %66
  %73 = getelementptr inbounds i8, ptr %5, i64 40
  %74 = load i64, ptr %73, align 8
  %.not13.i.i = icmp eq i64 %74, -1
  br i1 %.not13.i.i, label %77, label %75

75:                                               ; preds = %72
  %76 = getelementptr inbounds i8, ptr %70, i64 %74
  store ptr %76, ptr %3, align 8
  br label %77

77:                                               ; preds = %75, %72, %64
  %78 = getelementptr inbounds i8, ptr %5, i64 72
  %79 = load ptr, ptr %78, align 8
  %.not.i8.i = icmp eq ptr %79, null
  br i1 %.not.i8.i, label %GET_ARRAYS.exit, label %80

80:                                               ; preds = %77
  %81 = load ptr, ptr %8, align 8
  %82 = getelementptr inbounds i8, ptr %81, i64 1776
  %83 = load ptr, ptr %82, align 8
  %84 = tail call ptr %83(ptr noundef nonnull %8, ptr noundef nonnull %79, ptr noundef null) #13
  store ptr %84, ptr %30, align 8
  %85 = icmp eq ptr %84, null
  br i1 %85, label %86, label %GET_ARRAYS.exit

86:                                               ; preds = %80
  %87 = load ptr, ptr %16, align 8
  %.not.i.i.i = icmp eq ptr %87, null
  br i1 %.not.i.i.i, label %GET_ARRAYS.exit.thread, label %unpinStreamBuffer.exit.i.i

unpinStreamBuffer.exit.i.i:                       ; preds = %86
  %88 = load ptr, ptr %3, align 8
  %89 = icmp eq ptr %88, null
  %90 = ptrtoint ptr %88 to i64
  %91 = ptrtoint ptr %87 to i64
  %92 = sub i64 %90, %91
  %.sink.i.i.i = select i1 %89, i64 -1, i64 %92
  %93 = getelementptr inbounds i8, ptr %5, i64 40
  store i64 %.sink.i.i.i, ptr %93, align 8
  %94 = load ptr, ptr %8, align 8
  %95 = getelementptr inbounds i8, ptr %94, i64 1784
  %96 = load ptr, ptr %95, align 8
  %97 = load ptr, ptr %58, align 8
  tail call void %96(ptr noundef nonnull %8, ptr noundef %97, ptr noundef nonnull %87, i32 noundef 0) #13
  store ptr null, ptr %16, align 8
  %.pre.i = load ptr, ptr %30, align 8
  %.not.i5.i.i = icmp eq ptr %.pre.i, null
  br i1 %.not.i5.i.i, label %GET_ARRAYS.exit.thread, label %98

98:                                               ; preds = %unpinStreamBuffer.exit.i.i
  %99 = load ptr, ptr %8, align 8
  %100 = getelementptr inbounds i8, ptr %99, i64 1784
  %101 = load ptr, ptr %100, align 8
  %102 = load ptr, ptr %78, align 8
  tail call void %101(ptr noundef nonnull %8, ptr noundef %102, ptr noundef nonnull %.pre.i, i32 noundef 0) #13
  store ptr null, ptr %30, align 8
  br label %GET_ARRAYS.exit.thread

GET_ARRAYS.exit.thread:                           ; preds = %86, %98, %unpinStreamBuffer.exit.i.i, %66, %53
  %103 = load ptr, ptr %0, align 8
  %104 = load ptr, ptr %103, align 8
  tail call void %104(ptr noundef nonnull %0) #13
  br label %GET_ARRAYS.exit

GET_ARRAYS.exit:                                  ; preds = %80, %77, %GET_ARRAYS.exit.thread, %1
  tail call void @llvm.memset.p0.i64(ptr noundef nonnull align 8 dereferenceable(16) %3, i8 0, i64 16, i1 false)
  ret void
}